; Function Attrs: mustprogress nofree norecurse nosync nounwind willreturn memory(argmem: write) uwtable
define dso_local void @_ZN4Luau20TypeFunctionProperty2rwEPKNS_16TypeFunctionTypeES3_(ptr dead_on_unwind noalias writable writeonly sret(%"struct.Luau::TypeFunctionProperty") align 8 captures(none) initializes((0, 9), (16, 25)) %0, ptr noundef %1, ptr noundef %2) local_unnamed_addr #12 align 2 personality ptr @__gxx_personality_v0 {
  %4 = getelementptr inbounds nuw i8, ptr %0, i64 8
  %5 = getelementptr inbounds nuw i8, ptr %0, i64 24
  store ptr %1, ptr %0, align 8
  store i8 1, ptr %4, align 8
  %6 = getelementptr inbounds nuw i8, ptr %0, i64 16
  store ptr %2, ptr %6, align 8
  store i8 1, ptr %5, align 8
  ret void
}